	.file	"9728kqvggm7qtbz92yxz8cbti"
	.section	.text._RINvNtCseSxacx15ISk_3std2rt10lang_startuECs3blwfe8V9b3_17seminar_rust_demo,"ax",@progbits
	.hidden	_RINvNtCseSxacx15ISk_3std2rt10lang_startuECs3blwfe8V9b3_17seminar_rust_demo
	.globl	_RINvNtCseSxacx15ISk_3std2rt10lang_startuECs3blwfe8V9b3_17seminar_rust_demo
	.p2align	4
	.type	_RINvNtCseSxacx15ISk_3std2rt10lang_startuECs3blwfe8V9b3_17seminar_rust_demo,@function
_RINvNtCseSxacx15ISk_3std2rt10lang_startuECs3blwfe8V9b3_17seminar_rust_demo:
.Lfunc_begin0:
	.file	1 "/rustc/c23ed3ef28b3cc30658310f771ddc66e5b687cf4/library/std/src" "rt.rs"
	.loc	1 199 0
	.cfi_startproc
	subq	$40, %rsp
	.cfi_def_cfa_offset 48
	movl	%ecx, %eax
	movq	%rdx, %rcx
	movq	%rsi, %rdx
	movq	%rdi, 8(%rsp)
	movq	%rdx, 16(%rsp)
	movq	%rcx, 24(%rsp)
	movb	%al, 39(%rsp)
.Ltmp0:
	.loc	1 206 10 prologue_end
	movq	%rdi, (%rsp)
	.loc	1 205 5
	movq	%rsp, %rdi
	leaq	.Lanon.5d6ecb20b58eb020db1fdff379158bc8.0(%rip), %rsi
	movzbl	%al, %r8d
	callq	*_ZN3std2rt19lang_start_internal17h2bafbc381d0c3c47E@GOTPCREL(%rip)
	.loc	1 211 2 epilogue_begin
	addq	$40, %rsp
	.cfi_def_cfa_offset 8
	retq
.Ltmp1:
.Lfunc_end0:
	.size	_RINvNtCseSxacx15ISk_3std2rt10lang_startuECs3blwfe8V9b3_17seminar_rust_demo, .Lfunc_end0-_RINvNtCseSxacx15ISk_3std2rt10lang_startuECs3blwfe8V9b3_17seminar_rust_demo
	.cfi_endproc

	.section	.text._RINvNtNtCseSxacx15ISk_3std3sys9backtrace28___rust_begin_short_backtraceFEuuECs3blwfe8V9b3_17seminar_rust_demo,"ax",@progbits
	.p2align	4
	.type	_RINvNtNtCseSxacx15ISk_3std3sys9backtrace28___rust_begin_short_backtraceFEuuECs3blwfe8V9b3_17seminar_rust_demo,@function
_RINvNtNtCseSxacx15ISk_3std3sys9backtrace28___rust_begin_short_backtraceFEuuECs3blwfe8V9b3_17seminar_rust_demo:
.Lfunc_begin1:
	.file	2 "/rustc/c23ed3ef28b3cc30658310f771ddc66e5b687cf4/library/std/src/sys" "backtrace.rs"
	.loc	2 154 0
	.cfi_startproc
	subq	$24, %rsp
	.cfi_def_cfa_offset 32
	movq	%rdi, 8(%rsp)
.Ltmp2:
	.loc	2 158 18 prologue_end
	callq	_RNvYFEuINtNtNtCsfUQRuWBI3tk_4core3ops8function6FnOnceuE9call_onceCs3blwfe8V9b3_17seminar_rust_demo
.Ltmp3:
	.file	3 "/rustc/c23ed3ef28b3cc30658310f771ddc66e5b687cf4/library/core/src" "hint.rs"
	.loc	3 473 5
	#APP
	#NO_APP
.Ltmp4:
	.loc	2 164 2 epilogue_begin
	addq	$24, %rsp
	.cfi_def_cfa_offset 8
	retq
.Ltmp5:
.Lfunc_end1:
	.size	_RINvNtNtCseSxacx15ISk_3std3sys9backtrace28___rust_begin_short_backtraceFEuuECs3blwfe8V9b3_17seminar_rust_demo, .Lfunc_end1-_RINvNtNtCseSxacx15ISk_3std3sys9backtrace28___rust_begin_short_backtraceFEuuECs3blwfe8V9b3_17seminar_rust_demo
	.cfi_endproc

	.section	.text._RNCINvNtCseSxacx15ISk_3std2rt10lang_startuE0Cs3blwfe8V9b3_17seminar_rust_demo,"ax",@progbits
	.p2align	4
	.type	_RNCINvNtCseSxacx15ISk_3std2rt10lang_startuE0Cs3blwfe8V9b3_17seminar_rust_demo,@function
_RNCINvNtCseSxacx15ISk_3std2rt10lang_startuE0Cs3blwfe8V9b3_17seminar_rust_demo:
.Lfunc_begin2:
	.loc	1 206 0
	.cfi_startproc
	subq	$24, %rsp
	.cfi_def_cfa_offset 32
	movq	%rdi, 8(%rsp)
.Ltmp6:
	.loc	1 206 70 prologue_end
	movq	(%rdi), %rdi
	.loc	1 206 18 is_stmt 0
	callq	_RINvNtNtCseSxacx15ISk_3std3sys9backtrace28___rust_begin_short_backtraceFEuuECs3blwfe8V9b3_17seminar_rust_demo
	.loc	1 206 76
	callq	_RNvXsZ_NtCseSxacx15ISk_3std7processuNtB5_11Termination6reportCs3blwfe8V9b3_17seminar_rust_demo
	movb	%al, 23(%rsp)
.Ltmp7:
	.file	4 "/rustc/c23ed3ef28b3cc30658310f771ddc66e5b687cf4/library/std/src/sys/process/unix" "common.rs"
	.loc	4 590 9 is_stmt 1
	movzbl	%al, %eax
.Ltmp8:
	.loc	1 206 93 epilogue_begin
	addq	$24, %rsp
	.cfi_def_cfa_offset 8
	retq
.Ltmp9:
.Lfunc_end2:
	.size	_RNCINvNtCseSxacx15ISk_3std2rt10lang_startuE0Cs3blwfe8V9b3_17seminar_rust_demo, .Lfunc_end2-_RNCINvNtCseSxacx15ISk_3std2rt10lang_startuE0Cs3blwfe8V9b3_17seminar_rust_demo
	.cfi_endproc
	.file	5 "/rustc/c23ed3ef28b3cc30658310f771ddc66e5b687cf4/library/std/src" "process.rs"

	.section	.text._RNSNvYNCINvNtCseSxacx15ISk_3std2rt10lang_startuE0INtNtNtCsfUQRuWBI3tk_4core3ops8function6FnOnceuE9call_once6vtableCs3blwfe8V9b3_17seminar_rust_demo,"ax",@progbits
	.p2align	4
	.type	_RNSNvYNCINvNtCseSxacx15ISk_3std2rt10lang_startuE0INtNtNtCsfUQRuWBI3tk_4core3ops8function6FnOnceuE9call_once6vtableCs3blwfe8V9b3_17seminar_rust_demo,@function
_RNSNvYNCINvNtCseSxacx15ISk_3std2rt10lang_startuE0INtNtNtCsfUQRuWBI3tk_4core3ops8function6FnOnceuE9call_once6vtableCs3blwfe8V9b3_17seminar_rust_demo:
.Lfunc_begin3:
	.file	6 "/rustc/c23ed3ef28b3cc30658310f771ddc66e5b687cf4/library/core/src/ops" "function.rs"
	.loc	6 250 0
	.cfi_startproc
	subq	$24, %rsp
	.cfi_def_cfa_offset 32
	movq	%rdi, 16(%rsp)
.Ltmp10:
	.loc	6 250 5 prologue_end
	movq	(%rdi), %rdi
	callq	_RNvYNCINvNtCseSxacx15ISk_3std2rt10lang_startuE0INtNtNtCsfUQRuWBI3tk_4core3ops8function6FnOnceuE9call_onceCs3blwfe8V9b3_17seminar_rust_demo
	.loc	6 250 5 epilogue_begin is_stmt 0
	addq	$24, %rsp
	.cfi_def_cfa_offset 8
	retq
.Ltmp11:
.Lfunc_end3:
	.size	_RNSNvYNCINvNtCseSxacx15ISk_3std2rt10lang_startuE0INtNtNtCsfUQRuWBI3tk_4core3ops8function6FnOnceuE9call_once6vtableCs3blwfe8V9b3_17seminar_rust_demo, .Lfunc_end3-_RNSNvYNCINvNtCseSxacx15ISk_3std2rt10lang_startuE0INtNtNtCsfUQRuWBI3tk_4core3ops8function6FnOnceuE9call_once6vtableCs3blwfe8V9b3_17seminar_rust_demo
	.cfi_endproc

	.section	.text._RNvCs3blwfe8V9b3_17seminar_rust_demo4main,"ax",@progbits
	.hidden	_RNvCs3blwfe8V9b3_17seminar_rust_demo4main
	.globl	_RNvCs3blwfe8V9b3_17seminar_rust_demo4main
	.p2align	4
	.type	_RNvCs3blwfe8V9b3_17seminar_rust_demo4main,@function
_RNvCs3blwfe8V9b3_17seminar_rust_demo4main:
.Lfunc_begin4:
	.file	7 "/home/zijad/Projects/seminar-rust-demo" "src/main.rs"
	.loc	7 1 0 is_stmt 1
	.cfi_startproc
	pushq	%rax
	.cfi_def_cfa_offset 16
.Ltmp12:
	.loc	7 2 5 prologue_end
	leaq	.Lanon.5d6ecb20b58eb020db1fdff379158bc8.1(%rip), %rdi
	movl	$14, %esi
	callq	_RNvMs4_NtCsfUQRuWBI3tk_4core3fmtNtB5_9Arguments8from_strCs3blwfe8V9b3_17seminar_rust_demo
	movq	%rax, %rdi
	movq	%rdx, %rsi
	callq	*_ZN3std2io5stdio6_print17h1c8ea388148cf1c0E@GOTPCREL(%rip)
	.loc	7 3 2 epilogue_begin
	popq	%rax
	.cfi_def_cfa_offset 8
	retq
.Ltmp13:
.Lfunc_end4:
	.size	_RNvCs3blwfe8V9b3_17seminar_rust_demo4main, .Lfunc_end4-_RNvCs3blwfe8V9b3_17seminar_rust_demo4main
	.cfi_endproc

	.section	.text._RNvMs4_NtCsfUQRuWBI3tk_4core3fmtNtB5_9Arguments8from_strCs3blwfe8V9b3_17seminar_rust_demo,"ax",@progbits
	.p2align	4
	.type	_RNvMs4_NtCsfUQRuWBI3tk_4core3fmtNtB5_9Arguments8from_strCs3blwfe8V9b3_17seminar_rust_demo,@function
_RNvMs4_NtCsfUQRuWBI3tk_4core3fmtNtB5_9Arguments8from_strCs3blwfe8V9b3_17seminar_rust_demo:
.Lfunc_begin5:
	.file	8 "/rustc/c23ed3ef28b3cc30658310f771ddc66e5b687cf4/library/core/src/fmt" "mod.rs"
	.loc	8 815 0
	.cfi_startproc
	movq	%rdi, %rax
	movq	%rax, -16(%rsp)
	movq	%rsi, -8(%rsp)
.Ltmp14:
	.loc	8 820 38 prologue_end
	leaq	1(%rsi,%rsi), %rdx
	.loc	8 823 6
	retq
.Ltmp15:
.Lfunc_end5:
	.size	_RNvMs4_NtCsfUQRuWBI3tk_4core3fmtNtB5_9Arguments8from_strCs3blwfe8V9b3_17seminar_rust_demo, .Lfunc_end5-_RNvMs4_NtCsfUQRuWBI3tk_4core3fmtNtB5_9Arguments8from_strCs3blwfe8V9b3_17seminar_rust_demo
	.cfi_endproc

	.section	.text._RNvXsZ_NtCseSxacx15ISk_3std7processuNtB5_11Termination6reportCs3blwfe8V9b3_17seminar_rust_demo,"ax",@progbits
	.p2align	4
	.type	_RNvXsZ_NtCseSxacx15ISk_3std7processuNtB5_11Termination6reportCs3blwfe8V9b3_17seminar_rust_demo,@function
_RNvXsZ_NtCseSxacx15ISk_3std7processuNtB5_11Termination6reportCs3blwfe8V9b3_17seminar_rust_demo:
.Lfunc_begin6:
	.cfi_startproc
	.loc	5 2561 6 prologue_end
	xorl	%eax, %eax
	retq
.Ltmp16:
.Lfunc_end6:
	.size	_RNvXsZ_NtCseSxacx15ISk_3std7processuNtB5_11Termination6reportCs3blwfe8V9b3_17seminar_rust_demo, .Lfunc_end6-_RNvXsZ_NtCseSxacx15ISk_3std7processuNtB5_11Termination6reportCs3blwfe8V9b3_17seminar_rust_demo
	.cfi_endproc

	.section	.text._RNvYFEuINtNtNtCsfUQRuWBI3tk_4core3ops8function6FnOnceuE9call_onceCs3blwfe8V9b3_17seminar_rust_demo,"ax",@progbits
	.p2align	4
	.type	_RNvYFEuINtNtNtCsfUQRuWBI3tk_4core3ops8function6FnOnceuE9call_onceCs3blwfe8V9b3_17seminar_rust_demo,@function
_RNvYFEuINtNtNtCsfUQRuWBI3tk_4core3ops8function6FnOnceuE9call_onceCs3blwfe8V9b3_17seminar_rust_demo:
.Lfunc_begin7:
	.loc	6 250 0
	.cfi_startproc
	subq	$24, %rsp
	.cfi_def_cfa_offset 32
	movq	%rdi, 16(%rsp)
.Ltmp17:
	.loc	6 250 5 prologue_end
	callq	*%rdi
	.loc	6 250 5 epilogue_begin is_stmt 0
	addq	$24, %rsp
	.cfi_def_cfa_offset 8
	retq
.Ltmp18:
.Lfunc_end7:
	.size	_RNvYFEuINtNtNtCsfUQRuWBI3tk_4core3ops8function6FnOnceuE9call_onceCs3blwfe8V9b3_17seminar_rust_demo, .Lfunc_end7-_RNvYFEuINtNtNtCsfUQRuWBI3tk_4core3ops8function6FnOnceuE9call_onceCs3blwfe8V9b3_17seminar_rust_demo
	.cfi_endproc

	.section	.text._RNvYNCINvNtCseSxacx15ISk_3std2rt10lang_startuE0INtNtNtCsfUQRuWBI3tk_4core3ops8function6FnOnceuE9call_onceCs3blwfe8V9b3_17seminar_rust_demo,"ax",@progbits
	.p2align	4
	.type	_RNvYNCINvNtCseSxacx15ISk_3std2rt10lang_startuE0INtNtNtCsfUQRuWBI3tk_4core3ops8function6FnOnceuE9call_onceCs3blwfe8V9b3_17seminar_rust_demo,@function
_RNvYNCINvNtCseSxacx15ISk_3std2rt10lang_startuE0INtNtNtCsfUQRuWBI3tk_4core3ops8function6FnOnceuE9call_onceCs3blwfe8V9b3_17seminar_rust_demo:
.Lfunc_begin8:
	.loc	6 250 0 is_stmt 1
	.cfi_startproc
	.cfi_personality 155, DW.ref.rust_eh_personality
	.cfi_lsda 27, .Lexception0
	subq	$40, %rsp
	.cfi_def_cfa_offset 48
	movq	%rdi, 8(%rsp)
.Ltmp19:
	leaq	8(%rsp), %rdi
.Ltmp22:
	.loc	6 250 5 prologue_end
	callq	_RNCINvNtCseSxacx15ISk_3std2rt10lang_startuE0Cs3blwfe8V9b3_17seminar_rust_demo
.Ltmp20:
	movl	%eax, 4(%rsp)
	jmp	.LBB8_3
.LBB8_1:
	.loc	6 250 5
	movq	24(%rsp), %rdi
	callq	_Unwind_Resume@PLT
.LBB8_2:
.Ltmp21:
	.loc	6 0 5 is_stmt 0
	movq	%rax, %rcx
	movl	%edx, %eax
	movq	%rcx, 24(%rsp)
	movl	%eax, 32(%rsp)
	jmp	.LBB8_1
.LBB8_3:
	movl	4(%rsp), %eax
	.loc	6 250 5 epilogue_begin
	addq	$40, %rsp
	.cfi_def_cfa_offset 8
	retq
.Ltmp23:
.Lfunc_end8:
	.size	_RNvYNCINvNtCseSxacx15ISk_3std2rt10lang_startuE0INtNtNtCsfUQRuWBI3tk_4core3ops8function6FnOnceuE9call_onceCs3blwfe8V9b3_17seminar_rust_demo, .Lfunc_end8-_RNvYNCINvNtCseSxacx15ISk_3std2rt10lang_startuE0INtNtNtCsfUQRuWBI3tk_4core3ops8function6FnOnceuE9call_onceCs3blwfe8V9b3_17seminar_rust_demo
	.cfi_endproc
	.section	.gcc_except_table._RNvYNCINvNtCseSxacx15ISk_3std2rt10lang_startuE0INtNtNtCsfUQRuWBI3tk_4core3ops8function6FnOnceuE9call_onceCs3blwfe8V9b3_17seminar_rust_demo,"a",@progbits
	.p2align	2, 0x0
GCC_except_table8:
.Lexception0:
	.byte	255
	.byte	255
	.byte	1
	.uleb128 .Lcst_end0-.Lcst_begin0
.Lcst_begin0:
	.uleb128 .Ltmp19-.Lfunc_begin8
	.uleb128 .Ltmp20-.Ltmp19
	.uleb128 .Ltmp21-.Lfunc_begin8
	.byte	0
	.uleb128 .Ltmp20-.Lfunc_begin8
	.uleb128 .Lfunc_end8-.Ltmp20
	.byte	0
	.byte	0
.Lcst_end0:
	.p2align	2, 0x0

	.section	.text.main,"ax",@progbits
	.globl	main
	.p2align	4
	.type	main,@function
main:
.Lfunc_begin9:
	.cfi_startproc
	pushq	%rax
	.cfi_def_cfa_offset 16
	movq	%rsi, %rdx
	movq	__rustc_debug_gdb_scripts_section__@GOTPCREL(%rip), %rax
	movb	(%rax), %al
	movslq	%edi, %rsi
	leaq	_RNvCs3blwfe8V9b3_17seminar_rust_demo4main(%rip), %rdi
	xorl	%ecx, %ecx
	callq	_RINvNtCseSxacx15ISk_3std2rt10lang_startuECs3blwfe8V9b3_17seminar_rust_demo
	popq	%rcx
	.cfi_def_cfa_offset 8
	retq
.Lfunc_end9:
	.size	main, .Lfunc_end9-main
	.cfi_endproc

	.type	.Lanon.5d6ecb20b58eb020db1fdff379158bc8.0,@object
	.section	.data.rel.ro..Lanon.5d6ecb20b58eb020db1fdff379158bc8.0,"aw",@progbits
	.p2align	3, 0x0
.Lanon.5d6ecb20b58eb020db1fdff379158bc8.0:
	.asciz	"\000\000\000\000\000\000\000\000\b\000\000\000\000\000\000\000\b\000\000\000\000\000\000"
	.quad	_RNSNvYNCINvNtCseSxacx15ISk_3std2rt10lang_startuE0INtNtNtCsfUQRuWBI3tk_4core3ops8function6FnOnceuE9call_once6vtableCs3blwfe8V9b3_17seminar_rust_demo
	.quad	_RNCINvNtCseSxacx15ISk_3std2rt10lang_startuE0Cs3blwfe8V9b3_17seminar_rust_demo
	.quad	_RNCINvNtCseSxacx15ISk_3std2rt10lang_startuE0Cs3blwfe8V9b3_17seminar_rust_demo
	.size	.Lanon.5d6ecb20b58eb020db1fdff379158bc8.0, 48

	.type	.Lanon.5d6ecb20b58eb020db1fdff379158bc8.1,@object
	.section	.rodata..Lanon.5d6ecb20b58eb020db1fdff379158bc8.1,"a",@progbits
.Lanon.5d6ecb20b58eb020db1fdff379158bc8.1:
	.ascii	"Hello, world!\n"
	.size	.Lanon.5d6ecb20b58eb020db1fdff379158bc8.1, 14

	.type	__rustc_debug_gdb_scripts_section__,@object
	.section	.debug_gdb_scripts,"aMS",@progbits,1,unique,1
	.weak	__rustc_debug_gdb_scripts_section__
__rustc_debug_gdb_scripts_section__:
	.asciz	"\001gdb_load_rust_pretty_printers.py"
	.size	__rustc_debug_gdb_scripts_section__, 34

	.section	.data.rel.ro..Lanon.5d6ecb20b58eb020db1fdff379158bc8.0,"aw",@progbits
.Lsec_end0:
	.section	.text._RINvNtCseSxacx15ISk_3std2rt10lang_startuECs3blwfe8V9b3_17seminar_rust_demo,"ax",@progbits
.Lsec_end1:
	.section	.text._RINvNtNtCseSxacx15ISk_3std3sys9backtrace28___rust_begin_short_backtraceFEuuECs3blwfe8V9b3_17seminar_rust_demo,"ax",@progbits
.Lsec_end2:
	.section	.text._RNCINvNtCseSxacx15ISk_3std2rt10lang_startuE0Cs3blwfe8V9b3_17seminar_rust_demo,"ax",@progbits
.Lsec_end3:
	.section	.text._RNSNvYNCINvNtCseSxacx15ISk_3std2rt10lang_startuE0INtNtNtCsfUQRuWBI3tk_4core3ops8function6FnOnceuE9call_once6vtableCs3blwfe8V9b3_17seminar_rust_demo,"ax",@progbits
.Lsec_end4:
	.section	.text._RNvCs3blwfe8V9b3_17seminar_rust_demo4main,"ax",@progbits
.Lsec_end5:
	.section	.text._RNvMs4_NtCsfUQRuWBI3tk_4core3fmtNtB5_9Arguments8from_strCs3blwfe8V9b3_17seminar_rust_demo,"ax",@progbits
.Lsec_end6:
	.section	.text._RNvXsZ_NtCseSxacx15ISk_3std7processuNtB5_11Termination6reportCs3blwfe8V9b3_17seminar_rust_demo,"ax",@progbits
.Lsec_end7:
	.section	.text._RNvYFEuINtNtNtCsfUQRuWBI3tk_4core3ops8function6FnOnceuE9call_onceCs3blwfe8V9b3_17seminar_rust_demo,"ax",@progbits
.Lsec_end8:
	.section	.text._RNvYNCINvNtCseSxacx15ISk_3std2rt10lang_startuE0INtNtNtCsfUQRuWBI3tk_4core3ops8function6FnOnceuE9call_onceCs3blwfe8V9b3_17seminar_rust_demo,"ax",@progbits
.Lsec_end9:
	.section	.data.DW.ref.rust_eh_personality,"awG",@progbits,DW.ref.rust_eh_personality,comdat
	.p2align	3, 0x0
	.type	DW.ref.rust_eh_personality,@object
	.size	DW.ref.rust_eh_personality, 8
DW.ref.rust_eh_personality:
	.quad	rust_eh_personality
	.ident	"rustc version 1.93.0-nightly (c23ed3ef2 2025-11-23)"
	.section	".note.GNU-stack","",@progbits